-----BEGIN CERTIFICATE-----
MIIGyTCCBbGgAwIBAgIQBYtK6xBjDWyYmUiIjGZuvDANBgkqhkiG9w0BAQsFADBP
MQswCQYDVQQGEwJVUzEVMBMGA1UEChMMRGlnaUNlcnQgSW5jMSkwJwYDVQQDEyBE
aWdpQ2VydCBUTFMgUlNBIFNIQTI1NiAyMDIwIENBMTAeFw0yMjA5MDkwMDAwMDBa
Fw0yMzEwMTAyMzU5NTlaMHQxCzAJBgNVBAYTAlVTMRMwEQYDVQQIEwpOZXcgSmVy
c2V5MRIwEAYDVQQHEwlFYXRvbnRvd24xJDAiBgNVBAoTG1NwaXJlbnQgQ29tbXVu
aWNhdGlvbnMgSW5jLjEWMBQGA1UEAwwNKi5zcGlyZW50LmNvbTCCASIwDQYJKoZI
hvcNAQEBBQADggEPADCCAQoCggEBAKdZKGJOu5NI53eeSB5xKGsAGBL42OQpRt5x
R84tq0Dqr06toxeoDE+BCZQ6gYn4g4VjIlyvpgheVIOJnwAuz+j0S7OIL979srGl
pKsBAml4vo9HsNFGE6tFpuKM7BD3MyWt5iKJstrZSJom4SJvpzKIKvpODr3OyJh+
yf5zULyawMtcYqbAVTzJubP92kV5tTkLpRiCAnbHKU0QWmQShT8W+CaARPHhmJ4y
i0uozG4aSv2qG/HTu3j8Z+xhKo4f6JuVWSsp7qIbAwJd/cpYMvZkmyZwsLz/dhwd
wuDatwpElU2WHROLk1s4Ao9z2/RTb5BtwJ3kXBkEdido6NIgRGkCAwEAAaOCA3ow
ggN2MB8GA1UdIwQYMBaAFLdrouqoqoSMeeq02g+YssWVdrn0MB0GA1UdDgQWBBSg
5srt+fWMGwqlgQqEdrIRpnzkgDAlBgNVHREEHjAcgg0qLnNwaXJlbnQuY29tggtz
cGlyZW50LmNvbTAOBgNVHQ8BAf8EBAMCBaAwHQYDVR0lBBYwFAYIKwYBBQUHAwEG
CCsGAQUFBwMCMIGPBgNVHR8EgYcwgYQwQKA+oDyGOmh0dHA6Ly9jcmwzLmRpZ2lj
ZXJ0LmNvbS9EaWdpQ2VydFRMU1JTQVNIQTI1NjIwMjBDQTEtNC5jcmwwQKA+oDyG
Omh0dHA6Ly9jcmw0LmRpZ2ljZXJ0LmNvbS9EaWdpQ2VydFRMU1JTQVNIQTI1NjIw
MjBDQTEtNC5jcmwwPgYDVR0gBDcwNTAzBgZngQwBAgIwKTAnBggrBgEFBQcCARYb
aHR0cDovL3d3dy5kaWdpY2VydC5jb20vQ1BTMH8GCCsGAQUFBwEBBHMwcTAkBggr
BgEFBQcwAYYYaHR0cDovL29jc3AuZGlnaWNlcnQuY29tMEkGCCsGAQUFBzAChj1o
dHRwOi8vY2FjZXJ0cy5kaWdpY2VydC5jb20vRGlnaUNlcnRUTFNSU0FTSEEyNTYy
MDIwQ0ExLTEuY3J0MAkGA1UdEwQCMAAwggF+BgorBgEEAdZ5AgQCBIIBbgSCAWoB
aAB2AOg+0No+9QY1MudXKLyJa8kD08vREWvs62nhd31tBr1uAAABgyOXFAIAAAQD
AEcwRQIhAJnMWkS5KZ7pLima2YnVoIF/DK5ubyLNN73m8IgrZjDvAiAgzVEDoUo2
CEcuAwPEHVbWzlXBi4NqBZ5bFdR7hlAIXAB1ADXPGRu/sWxXvw+tTG1Cy7u2JyAm
Ueo/4SrvqAPDO9ZMAAABgyOXFDsAAAQDAEYwRAIgCLnch5kOjmymddzAJwc0s7+U
DaqQE04K6TzVkIR4B84CIH0R2Ky61orC2irx3ImIl+Z8ogFozbQBGX0/NYM4fDtp
AHcAtz77JN+cTbp18jnFulj0bF38Qs96nzXEnh0JgSXttJkAAAGDI5cURQAABAMA
SDBGAiEA+Omzum5YUn8kP8MVQSs+wwCx2Xkg2crVTGwAGjLyg64CIQD7yiChSW/V
aD0VX2SHBGDkFqGfq1AiYOL+PeQhhLYCOTANBgkqhkiG9w0BAQsFAAOCAQEAHwta
SPQf8F7a1a+n1cVJD4wh11rM+hTzwgjKWM6AXPOTUoDMaZLnt52E6q4Ws/Xd2UxP
R52Q5GGfYycMTjGz+MNwABcALdDUC3ZqjDXdhyCUM2g5h3atMLp1KbrykgIK5zUU
0at/lR4cKEeFj1SxpDZ5JE4PtiAg72mSoGzP1HBvlscnoXXrcMpIDvM4OiLEFE8r
V3tyCA5XN2WUoGD9bTot9U9lunw/Yu5wh66A0PydKk+75eC/Qd54c55eL9BWZgGV
HlGq3Qt7TgeDwfao2Cfn8hTzkZ592CaAtulBy+fBnCzqNEI8C4zEVKVvd/31cm01
pxUpYnXs3eTdVytjDg==
-----END CERTIFICATE-----
Certificate:
    Data:
        Version: 3 (0x2)
        Serial Number:
            05:8b:4a:eb:10:63:0d:6c:98:99:48:88:8c:66:6e:bc
        Signature Algorithm: sha256WithRSAEncryption
        Issuer: C = US, O = DigiCert Inc, CN = DigiCert TLS RSA SHA256 2020 CA1
        Validity
            Not Before: Sep  9 00:00:00 2022 GMT
            Not After : Oct 10 23:59:59 2023 GMT
        Subject: C = US, ST = New Jersey, L = Eatontown, O = Spirent Communications Inc., CN = *.spirent.com
        Subject Public Key Info:
            Public Key Algorithm: rsaEncryption
                RSA Public-Key: (2048 bit)
                Modulus:
                    00:a7:59:28:62:4e:bb:93:48:e7:77:9e:48:1e:71:
                    28:6b:00:18:12:f8:d8:e4:29:46:de:71:47:ce:2d:
                    ab:40:ea:af:4e:ad:a3:17:a8:0c:4f:81:09:94:3a:
                    81:89:f8:83:85:63:22:5c:af:a6:08:5e:54:83:89:
                    9f:00:2e:cf:e8:f4:4b:b3:88:2f:de:fd:b2:b1:a5:
                    a4:ab:01:02:69:78:be:8f:47:b0:d1:46:13:ab:45:
                    a6:e2:8c:ec:10:f7:33:25:ad:e6:22:89:b2:da:d9:
                    48:9a:26:e1:22:6f:a7:32:88:2a:fa:4e:0e:bd:ce:
                    c8:98:7e:c9:fe:73:50:bc:9a:c0:cb:5c:62:a6:c0:
                    55:3c:c9:b9:b3:fd:da:45:79:b5:39:0b:a5:18:82:
                    02:76:c7:29:4d:10:5a:64:12:85:3f:16:f8:26:80:
                    44:f1:e1:98:9e:32:8b:4b:a8:cc:6e:1a:4a:fd:aa:
                    1b:f1:d3:bb:78:fc:67:ec:61:2a:8e:1f:e8:9b:95:
                    59:2b:29:ee:a2:1b:03:02:5d:fd:ca:58:32:f6:64:
                    9b:26:70:b0:bc:ff:76:1c:1d:c2:e0:da:b7:0a:44:
                    95:4d:96:1d:13:8b:93:5b:38:02:8f:73:db:f4:53:
                    6f:90:6d:c0:9d:e4:5c:19:04:76:27:68:e8:d2:20:
                    44:69
                Exponent: 65537 (0x10001)
        X509v3 extensions:
            X509v3 Authority Key Identifier: 
                keyid:B7:6B:A2:EA:A8:AA:84:8C:79:EA:B4:DA:0F:98:B2:C5:95:76:B9:F4

            X509v3 Subject Key Identifier: 
                A0:E6:CA:ED:F9:F5:8C:1B:0A:A5:81:0A:84:76:B2:11:A6:7C:E4:80
            X509v3 Subject Alternative Name: 
                DNS:*.spirent.com, DNS:spirent.com
            X509v3 Key Usage: critical
                Digital Signature, Key Encipherment
            X509v3 Extended Key Usage: 
                TLS Web Server Authentication, TLS Web Client Authentication
            X509v3 CRL Distribution Points: 

                Full Name:
                  URI:http://crl3.digicert.com/DigiCertTLSRSASHA2562020CA1-4.crl

                Full Name:
                  URI:http://crl4.digicert.com/DigiCertTLSRSASHA2562020CA1-4.crl

            X509v3 Certificate Policies: 
                Policy: 2.23.140.1.2.2
                  CPS: http://www.digicert.com/CPS

            Authority Information Access: 
                OCSP - URI:http://ocsp.digicert.com
                CA Issuers - URI:http://cacerts.digicert.com/DigiCertTLSRSASHA2562020CA1-1.crt

            X509v3 Basic Constraints: 
                CA:FALSE
            CT Precertificate SCTs: 
                Signed Certificate Timestamp:
                    Version   : v1 (0x0)
                    Log ID    : E8:3E:D0:DA:3E:F5:06:35:32:E7:57:28:BC:89:6B:C9:
                                03:D3:CB:D1:11:6B:EC:EB:69:E1:77:7D:6D:06:BD:6E
                    Timestamp : Sep  9 18:50:47.170 2022 GMT
                    Extensions: none
                    Signature : ecdsa-with-SHA256
                                30:45:02:21:00:99:CC:5A:44:B9:29:9E:E9:2E:29:9A:
                                D9:89:D5:A0:81:7F:0C:AE:6E:6F:22:CD:37:BD:E6:F0:
                                88:2B:66:30:EF:02:20:20:CD:51:03:A1:4A:36:08:47:
                                2E:03:03:C4:1D:56:D6:CE:55:C1:8B:83:6A:05:9E:5B:
                                15:D4:7B:86:50:08:5C
                Signed Certificate Timestamp:
                    Version   : v1 (0x0)
                    Log ID    : 35:CF:19:1B:BF:B1:6C:57:BF:0F:AD:4C:6D:42:CB:BB:
                                B6:27:20:26:51:EA:3F:E1:2A:EF:A8:03:C3:3B:D6:4C
                    Timestamp : Sep  9 18:50:47.227 2022 GMT
                    Extensions: none
                    Signature : ecdsa-with-SHA256
                                30:44:02:20:08:B9:DC:87:99:0E:8E:6C:A6:75:DC:C0:
                                27:07:34:B3:BF:94:0D:AA:90:13:4E:0A:E9:3C:D5:90:
                                84:78:07:CE:02:20:7D:11:D8:AC:BA:D6:8A:C2:DA:2A:
                                F1:DC:89:88:97:E6:7C:A2:01:68:CD:B4:01:19:7D:3F:
                                35:83:38:7C:3B:69
                Signed Certificate Timestamp:
                    Version   : v1 (0x0)
                    Log ID    : B7:3E:FB:24:DF:9C:4D:BA:75:F2:39:C5:BA:58:F4:6C:
                                5D:FC:42:CF:7A:9F:35:C4:9E:1D:09:81:25:ED:B4:99
                    Timestamp : Sep  9 18:50:47.237 2022 GMT
                    Extensions: none
                    Signature : ecdsa-with-SHA256
                                30:46:02:21:00:F8:E9:B3:BA:6E:58:52:7F:24:3F:C3:
                                15:41:2B:3E:C3:00:B1:D9:79:20:D9:CA:D5:4C:6C:00:
                                1A:32:F2:83:AE:02:21:00:FB:CA:20:A1:49:6F:D5:68:
                                3D:15:5F:64:87:04:60:E4:16:A1:9F:AB:50:22:60:E2:
                                FE:3D:E4:21:84:B6:02:39
    Signature Algorithm: sha256WithRSAEncryption
         1f:0b:5a:48:f4:1f:f0:5e:da:d5:af:a7:d5:c5:49:0f:8c:21:
         d7:5a:cc:fa:14:f3:c2:08:ca:58:ce:80:5c:f3:93:52:80:cc:
         69:92:e7:b7:9d:84:ea:ae:16:b3:f5:dd:d9:4c:4f:47:9d:90:
         e4:61:9f:63:27:0c:4e:31:b3:f8:c3:70:00:17:00:2d:d0:d4:
         0b:76:6a:8c:35:dd:87:20:94:33:68:39:87:76:ad:30:ba:75:
         29:ba:f2:92:02:0a:e7:35:14:d1:ab:7f:95:1e:1c:28:47:85:
         8f:54:b1:a4:36:79:24:4e:0f:b6:20:20:ef:69:92:a0:6c:cf:
         d4:70:6f:96:c7:27:a1:75:eb:70:ca:48:0e:f3:38:3a:22:c4:
         14:4f:2b:57:7b:72:08:0e:57:37:65:94:a0:60:fd:6d:3a:2d:
         f5:4f:65:ba:7c:3f:62:ee:70:87:ae:80:d0:fc:9d:2a:4f:bb:
         e5:e0:bf:41:de:78:73:9e:5e:2f:d0:56:66:01:95:1e:51:aa:
         dd:0b:7b:4e:07:83:c1:f6:a8:d8:27:e7:f2:14:f3:91:9e:7d:
         d8:26:80:b6:e9:41:cb:e7:c1:9c:2c:ea:34:42:3c:0b:8c:c4:
         54:a5:6f:77:fd:f5:72:6d:35:a7:15:29:62:75:ec:dd:e4:dd:
         57:2b:63:0e
